; ModuleID = '56/1491.c'
source_filename = "56/1491.c"
target datalayout = "e-m:e-p270:32:32-p271:32:32-p272:64:64-i64:64-f80:128-n8:16:32:64-S128"
target triple = "x86_64-pc-linux-gnu"

@.str = private unnamed_addr constant [3 x i8] c"%s\00", align 1
@.str.1 = private unnamed_addr constant [4 x i8] c"%s\0A\00", align 1

; Function Attrs: noinline nounwind uwtable
define dso_local i32 @main() #0 {
  %1 = alloca i32, align 4
  %2 = alloca i32, align 4
  %3 = alloca [6 x i8], align 1
  %4 = alloca [6 x i8], align 1
  %5 = alloca i32, align 4
  store i32 0, i32* %1, align 4
  %6 = getelementptr inbounds [6 x i8], [6 x i8]* %3, i64 0, i64 0
  %7 = call i32 (i8*, ...) @__isoc99_scanf(i8* getelementptr inbounds ([3 x i8], [3 x i8]* @.str, i64 0, i64 0), i8* %6)
  %8 = getelementptr inbounds [6 x i8], [6 x i8]* %3, i64 0, i64 0
  %9 = call i64 @strlen(i8* %8) #3
  %10 = trunc i64 %9 to i32
  store i32 %10, i32* %2, align 4
  store i32 0, i32* %5, align 4
  br label %11

11:                                               ; preds = %44, %0
  %12 = load i32, i32* %5, align 4
  %13 = load i32, i32* %2, align 4
  %14 = sdiv i32 %13, 2
  %15 = icmp slt i32 %12, %14
  br i1 %15, label %16, label %47

16:                                               ; preds = %11
  %17 = load i32, i32* %5, align 4
  %18 = sext i32 %17 to i64
  %19 = getelementptr inbounds [6 x i8], [6 x i8]* %3, i64 0, i64 %18
  %20 = load i8, i8* %19, align 1
  %21 = load i32, i32* %5, align 4
  %22 = sext i32 %21 to i64
  %23 = getelementptr inbounds [6 x i8], [6 x i8]* %4, i64 0, i64 %22
  store i8 %20, i8* %23, align 1
  %24 = load i32, i32* %2, align 4
  %25 = load i32, i32* %5, align 4
  %26 = sub nsw i32 %24, %25
  %27 = sub nsw i32 %26, 1
  %28 = sext i32 %27 to i64
  %29 = getelementptr inbounds [6 x i8], [6 x i8]* %3, i64 0, i64 %28
  %30 = load i8, i8* %29, align 1
  %31 = load i32, i32* %5, align 4
  %32 = sext i32 %31 to i64
  %33 = getelementptr inbounds [6 x i8], [6 x i8]* %3, i64 0, i64 %32
  store i8 %30, i8* %33, align 1
  %34 = load i32, i32* %5, align 4
  %35 = sext i32 %34 to i64
  %36 = getelementptr inbounds [6 x i8], [6 x i8]* %4, i64 0, i64 %35
  %37 = load i8, i8* %36, align 1
  %38 = load i32, i32* %2, align 4
  %39 = load i32, i32* %5, align 4
  %40 = sub nsw i32 %38, %39
  %41 = sub nsw i32 %40, 1
  %42 = sext i32 %41 to i64
  %43 = getelementptr inbounds [6 x i8], [6 x i8]* %3, i64 0, i64 %42
  store i8 %37, i8* %43, align 1
  br label %44

44:                                               ; preds = %16
  %45 = load i32, i32* %5, align 4
  %46 = add nsw i32 %45, 1
  store i32 %46, i32* %5, align 4
  br label %11

47:                                               ; preds = %11
  %48 = getelementptr inbounds [6 x i8], [6 x i8]* %3, i64 0, i64 0
  %49 = call i32 (i8*, ...) @printf(i8* getelementptr inbounds ([4 x i8], [4 x i8]* @.str.1, i64 0, i64 0), i8* %48)
  ret i32 0
}

declare dso_local i32 @__isoc99_scanf(i8*, ...) #1

; Function Attrs: nounwind readonly
declare dso_local i64 @strlen(i8*) #2

declare dso_local i32 @printf(i8*, ...) #1


!llvm.module.flags = !{!0}
!llvm.ident = !{!1}

!0 = !{i32 1, !"wchar_size", i32 4}
!1 = !{!"clang version 10.0.0-4ubuntu1 "}
